; Function Attrs: nounwind sspstrong uwtable
define internal i64 @rb_file_atime(i64 noundef %0) #0 {
  %2 = alloca %struct.stat, align 8
  call void @llvm.lifetime.start.p0(i64 144, ptr nonnull %2) #22
  %3 = tail call i64 @rb_io_taint_check(i64 noundef %0) #22
  %4 = inttoptr i64 %3 to ptr
  %5 = getelementptr inbounds nuw i8, ptr %4, i64 16
  %6 = load ptr, ptr %5, align 8, !tbaa !33
  tail call void @rb_io_check_closed(ptr noundef %6) #22
  %7 = getelementptr inbounds nuw i8, ptr %6, i64 16
  %8 = load i32, ptr %7, align 8, !tbaa !36
  %9 = call i32 @fstat(i32 noundef %8, ptr noundef nonnull %2) #22
  %10 = icmp eq i32 %9, -1
  br i1 %10, label %11, label %16

11:                                               ; preds = %1
  %12 = tail call ptr @rb_errno_ptr() #22
  %13 = load i32, ptr %12, align 4, !tbaa !26
  %14 = getelementptr inbounds nuw i8, ptr %6, i64 32
  %15 = load i64, ptr %14, align 8, !tbaa !74
  tail call void @rb_syserr_fail_path_in(ptr noundef nonnull @__func__.rb_file_atime, i32 noundef %13, i64 noundef %15) #24
  unreachable

16:                                               ; preds = %1
  %17 = getelementptr inbounds nuw i8, ptr %2, i64 72
  %.val = load i64, ptr %17, align 8, !tbaa !216
  %18 = getelementptr inbounds nuw i8, ptr %2, i64 80
  %.val3 = load i64, ptr %18, align 8, !tbaa !217
  %19 = tail call i64 @rb_time_nano_new(i64 noundef %.val, i64 noundef %.val3) #22
  call void @llvm.lifetime.end.p0(i64 144, ptr nonnull %2) #22
  ret i64 %19
}